; Function Attrs: nounwind uwtable
define internal void @recff_table_clear(ptr noundef %0, ptr noundef writeonly captures(none) %1) #0 {
  %3 = getelementptr inbounds nuw i8, ptr %0, i64 160
  %4 = load ptr, ptr %3, align 8, !tbaa !37
  %5 = load i32, ptr %4, align 4, !tbaa !39
  %6 = and i32 %5, 520093696
  %7 = icmp eq i32 %6, 184549376
  br i1 %7, label %8, label %12

8:                                                ; preds = %2
  %9 = getelementptr inbounds nuw i8, ptr %1, i64 8
  store i64 0, ptr %9, align 8, !tbaa !32
  %10 = tail call i32 (ptr, i32, ...) @lj_ir_call(ptr noundef nonnull %0, i32 noundef 34, i32 noundef %5) #9
  %11 = getelementptr inbounds nuw i8, ptr %0, i64 181
  store i8 1, ptr %11, align 1, !tbaa !54
  br label %12

12:                                               ; preds = %8, %2
  ret void
}